; ModuleID = 'source-C-CXX/18/2197.c'
source_filename = "source-C-CXX/18/2197.c"
target datalayout = "e-m:e-p270:32:32-p271:32:32-p272:64:64-i64:64-f80:128-n8:16:32:64-S128"
target triple = "x86_64-pc-linux-gnu"

@.str = private unnamed_addr constant [4 x i8] c"%s \00", align 1
@.str.1 = private unnamed_addr constant [3 x i8] c"%s\00", align 1

; Function Attrs: nounwind sspstrong uwtable
define dso_local i32 @main() local_unnamed_addr #0 {
  %1 = alloca [101 x i8], align 16
  %2 = alloca [100 x [100 x i8]], align 16
  %3 = alloca [100 x i8], align 16
  %4 = alloca [100 x i8], align 16
  %5 = getelementptr inbounds [101 x i8], [101 x i8]* %1, i64 0, i64 0
  call void @llvm.lifetime.start.p0i8(i64 101, i8* nonnull %5) #6
  %6 = getelementptr inbounds [100 x [100 x i8]], [100 x [100 x i8]]* %2, i64 0, i64 0, i64 0
  call void @llvm.lifetime.start.p0i8(i64 10000, i8* nonnull %6) #6
  %7 = getelementptr inbounds [100 x i8], [100 x i8]* %3, i64 0, i64 0
  call void @llvm.lifetime.start.p0i8(i64 100, i8* nonnull %7) #6
  %8 = getelementptr inbounds [100 x i8], [100 x i8]* %4, i64 0, i64 0
  call void @llvm.lifetime.start.p0i8(i64 100, i8* nonnull %8) #6
  %9 = call i32 (i8*, ...) bitcast (i32 (...)* @gets to i32 (i8*, ...)*)(i8* nonnull %5) #6
  %10 = call i32 (i8*, ...) bitcast (i32 (...)* @gets to i32 (i8*, ...)*)(i8* nonnull %8) #6
  %11 = call i32 (i8*, ...) bitcast (i32 (...)* @gets to i32 (i8*, ...)*)(i8* nonnull %7) #6
  br label %12

12:                                               ; preds = %27, %0
  %13 = phi i32 [ 0, %0 ], [ %28, %27 ]
  %14 = phi i8* [ %5, %0 ], [ %30, %27 ]
  %15 = phi i32 [ 0, %0 ], [ %29, %27 ]
  %16 = load i8, i8* %14, align 1, !tbaa !5
  switch i8 %16, label %17 [
    i8 0, label %31
    i8 32, label %22
  ]

17:                                               ; preds = %12
  %18 = sext i32 %13 to i64
  %19 = sext i32 %15 to i64
  %20 = getelementptr inbounds [100 x [100 x i8]], [100 x [100 x i8]]* %2, i64 0, i64 %18, i64 %19
  store i8 %16, i8* %20, align 1, !tbaa !5
  %21 = add nsw i32 %15, 1
  br label %27

22:                                               ; preds = %12
  %23 = sext i32 %13 to i64
  %24 = sext i32 %15 to i64
  %25 = getelementptr inbounds [100 x [100 x i8]], [100 x [100 x i8]]* %2, i64 0, i64 %23, i64 %24
  store i8 0, i8* %25, align 1, !tbaa !5
  %26 = add nsw i32 %13, 1
  br label %27

27:                                               ; preds = %17, %22
  %28 = phi i32 [ %13, %17 ], [ %26, %22 ]
  %29 = phi i32 [ %21, %17 ], [ 0, %22 ]
  %30 = getelementptr inbounds i8, i8* %14, i64 1
  br label %12, !llvm.loop !8

31:                                               ; preds = %12
  %32 = sext i32 %13 to i64
  %33 = sext i32 %15 to i64
  %34 = getelementptr inbounds [100 x [100 x i8]], [100 x [100 x i8]]* %2, i64 0, i64 %32, i64 %33
  store i8 0, i8* %34, align 1, !tbaa !5
  %35 = icmp slt i32 %13, 0
  br i1 %35, label %65, label %36

36:                                               ; preds = %31
  %37 = add nuw i32 %13, 1
  %38 = zext i32 %37 to i64
  br label %39

39:                                               ; preds = %36, %47
  %40 = phi i64 [ 0, %36 ], [ %49, %47 ]
  %41 = phi i32 [ 0, %36 ], [ %48, %47 ]
  %42 = getelementptr inbounds [100 x [100 x i8]], [100 x [100 x i8]]* %2, i64 0, i64 %40, i64 0
  %43 = call i32 @strcmp(i8* noundef nonnull %42, i8* noundef nonnull %8) #7
  %44 = icmp eq i32 %43, 0
  br i1 %44, label %45, label %47

45:                                               ; preds = %39
  %46 = call i8* @strcpy(i8* noundef nonnull %42, i8* noundef nonnull %7) #6
  br label %47

47:                                               ; preds = %39, %45
  %48 = phi i32 [ 1, %45 ], [ %41, %39 ]
  %49 = add nuw nsw i64 %40, 1
  %50 = icmp eq i64 %49, %38
  br i1 %50, label %51, label %39, !llvm.loop !10

51:                                               ; preds = %47
  %52 = icmp eq i32 %48, 1
  br i1 %52, label %53, label %65

53:                                               ; preds = %51
  %54 = icmp sgt i32 %13, 0
  br i1 %54, label %55, label %63

55:                                               ; preds = %53
  %56 = zext i32 %13 to i64
  br label %57

57:                                               ; preds = %55, %57
  %58 = phi i64 [ 0, %55 ], [ %61, %57 ]
  %59 = getelementptr inbounds [100 x [100 x i8]], [100 x [100 x i8]]* %2, i64 0, i64 %58, i64 0
  %60 = call i32 (i8*, ...) @printf(i8* nonnull dereferenceable(1) getelementptr inbounds ([4 x i8], [4 x i8]* @.str, i64 0, i64 0), i8* nonnull %59)
  %61 = add nuw nsw i64 %58, 1
  %62 = icmp eq i64 %61, %56
  br i1 %62, label %63, label %57, !llvm.loop !11

63:                                               ; preds = %57, %53
  %64 = getelementptr inbounds [100 x [100 x i8]], [100 x [100 x i8]]* %2, i64 0, i64 %32, i64 0
  br label %65

65:                                               ; preds = %51, %31, %63
  %66 = phi i8* [ %64, %63 ], [ %5, %31 ], [ %5, %51 ]
  %67 = call i32 (i8*, ...) @printf(i8* nonnull dereferenceable(1) getelementptr inbounds ([3 x i8], [3 x i8]* @.str.1, i64 0, i64 0), i8* nonnull %66)
  call void @llvm.lifetime.end.p0i8(i64 100, i8* nonnull %8) #6
  call void @llvm.lifetime.end.p0i8(i64 100, i8* nonnull %7) #6
  call void @llvm.lifetime.end.p0i8(i64 10000, i8* nonnull %6) #6
  call void @llvm.lifetime.end.p0i8(i64 101, i8* nonnull %5) #6
  ret i32 0
}

; Function Attrs: argmemonly mustprogress nofree nosync nounwind willreturn
declare void @llvm.lifetime.start.p0i8(i64 immarg, i8* nocapture) #1

declare i32 @gets(...) local_unnamed_addr #2

; Function Attrs: argmemonly mustprogress nofree nounwind readonly willreturn
declare i32 @strcmp(i8* nocapture, i8* nocapture) local_unnamed_addr #3

; Function Attrs: argmemonly mustprogress nofree nounwind willreturn
declare i8* @strcpy(i8* noalias returned writeonly, i8* noalias nocapture readonly) local_unnamed_addr #4

; Function Attrs: nofree nounwind
declare noundef i32 @printf(i8* nocapture noundef readonly, ...) local_unnamed_addr #5

; Function Attrs: argmemonly mustprogress nofree nosync nounwind willreturn
declare void @llvm.lifetime.end.p0i8(i64 immarg, i8* nocapture) #1


!llvm.module.flags = !{!0, !1, !2, !3}
!llvm.ident = !{!4}

!0 = !{i32 1, !"wchar_size", i32 4}
!1 = !{i32 7, !"PIC Level", i32 2}
!2 = !{i32 7, !"PIE Level", i32 2}
!3 = !{i32 7, !"uwtable", i32 1}
!4 = !{!"clang version 13.0.0"}
!5 = !{!6, !6, i64 0}
!6 = !{!"omnipotent char", !7, i64 0}
!7 = !{!"Simple C/C++ TBAA"}
!8 = distinct !{!8, !9}
!9 = !{!"llvm.loop.mustprogress"}
!10 = distinct !{!10, !9}
!11 = distinct !{!11, !9}
